(dp1
S'bs'
p2
(dp3
S'2016-09-19'
p4
(dp5
S'p90 (Coka)'
p6
F71.989999999999995
sS'Aeropress*2 (Mum and Hannah)'
p7
F91.060000000000002
sS'Yantra book (Leigh)'
p8
F36.659999999999997
ssS'2016-09-18'
p9
(dp10
S'glueandwhiteout'
p11
I10
ssS'2016-09-08'
p12
(dp13
S'pedal'
p14
I60
sS'for assignment Kovacs'
p15
I-275
sS'Bunnings'
p16
F149.03999999999999
sS'Garden stuff'
p17
F203.44999999999999
ssS'2016-09-15'
p18
(dp19
S'android audio software'
p20
I17
sS'pizza stone'
p21
F22.850000000000001
sS'petrol'
p22
F37.210000000000001
sS'omnibook'
p23
F22.850000000000001
sS'bsnneton'
p24
F13.109999999999999
sS'herbs'
p25
F36.840000000000003
sS'Annie rent'
p26
I-600
sS'khalaf rent'
p27
I-300
sS'rates'
p28
F371.31
sS'pizza paddle'
p29
F23.949999999999999
sS'yantra'
p30
I-60
sss.